; Function Attrs: mustprogress nofree norecurse nosync nounwind willreturn memory(write, argmem: readwrite, inaccessiblemem: none) uwtable
define void @_ZN5boost9iostreams6detail11gzip_header5resetEv(ptr nocapture noundef nonnull align 8 dereferenceable(96) %0) local_unnamed_addr #4 align 2 personality ptr @__gxx_personality_v0 {
  %2 = getelementptr inbounds nuw i8, ptr %0, i64 8
  store i64 0, ptr %2, align 8, !tbaa !17
  %3 = load ptr, ptr %0, align 8, !tbaa !18
  store i8 0, ptr %3, align 1, !tbaa !19
  %4 = getelementptr inbounds nuw i8, ptr %0, i64 32
  %5 = getelementptr inbounds nuw i8, ptr %0, i64 40
  store i64 0, ptr %5, align 8, !tbaa !17
  %6 = load ptr, ptr %4, align 8, !tbaa !18
  store i8 0, ptr %6, align 1, !tbaa !19
  %7 = getelementptr inbounds nuw i8, ptr %0, i64 92
  store i32 0, ptr %7, align 4, !tbaa !16
  %8 = getelementptr inbounds nuw i8, ptr %0, i64 88
  store i32 0, ptr %8, align 8, !tbaa !13
  %9 = getelementptr inbounds nuw i8, ptr %0, i64 80
  store i32 0, ptr %9, align 8, !tbaa !12
  %10 = getelementptr inbounds nuw i8, ptr %0, i64 64
  store i32 0, ptr %10, align 8, !tbaa !15
  %11 = getelementptr inbounds nuw i8, ptr %0, i64 72
  store i64 0, ptr %11, align 8, !tbaa !14
  %12 = getelementptr inbounds nuw i8, ptr %0, i64 84
  store i32 1, ptr %12, align 4, !tbaa !3
  ret void
}